target datalayout = "e-m:e-p270:32:32-p271:32:32-p272:64:64-i64:64-i128:128-f80:128-n8:16:32:64-S128"
target triple = "x86_64-pc-linux-gnu"

%"class.testing::internal::RE" = type { ptr, i8, %struct.re_pattern_buffer, %struct.re_pattern_buffer }
%struct.re_pattern_buffer = type { ptr, i64, i64, i64, ptr, ptr, i64, i8 }

; Function Attrs: mustprogress nounwind uwtable
define dso_local void @_ZN7testing8internal2RED2Ev(ptr noundef nonnull align 8 dereferenceable(144) %0) unnamed_addr #6 align 2 personality ptr @__gxx_personality_v0 {
  %2 = alloca ptr, align 8
  store ptr %0, ptr %2, align 8, !tbaa !817
  %3 = load ptr, ptr %2, align 8
  %4 = getelementptr inbounds nuw %"class.testing::internal::RE", ptr %3, i32 0, i32 1
  %5 = load i8, ptr %4, align 8, !tbaa !819, !range !11, !noundef !12
  %6 = trunc i8 %5 to i1
  br i1 %6, label %7, label %12

7:                                                ; preds = %1
  %8 = getelementptr inbounds nuw %"class.testing::internal::RE", ptr %3, i32 0, i32 3
  invoke void @regfree(ptr noundef %8)
          to label %9 unwind label %15

9:                                                ; preds = %7
  %10 = getelementptr inbounds nuw %"class.testing::internal::RE", ptr %3, i32 0, i32 2
  invoke void @regfree(ptr noundef %10)
          to label %11 unwind label %15

11:                                               ; preds = %9
  br label %12

12:                                               ; preds = %11, %1
  %13 = getelementptr inbounds nuw %"class.testing::internal::RE", ptr %3, i32 0, i32 0
  %14 = load ptr, ptr %13, align 8, !tbaa !823
  call void @free(ptr noundef %14) #3
  ret void

15:                                               ; preds = %9, %7
  %16 = landingpad { ptr, i32 }
          catch ptr null
  %17 = extractvalue { ptr, i32 } %16, 0
  call void @__clang_call_terminate(ptr %17) #32
  unreachable
}